; Function Attrs: mustprogress nofree norecurse nosync nounwind willreturn memory(none) uwtable
define range(i32 0, 5001) i32 @jpeg_quality_scaling(i32 noundef %0) local_unnamed_addr #2 {
  %spec.store.select = tail call i32 @llvm.smax.i32(i32 %0, i32 1)
  %spec.store.select1 = tail call i32 @llvm.umin.i32(i32 %spec.store.select, i32 100)
  %2 = icmp slt i32 %0, 50
  br i1 %2, label %3, label %5

3:                                                ; preds = %1
  %.rhs.trunc = trunc nuw nsw i32 %spec.store.select1 to i16
  %4 = udiv i16 5000, %.rhs.trunc
  %.zext = zext nneg i16 %4 to i32
  br label %8

5:                                                ; preds = %1
  %6 = shl nuw nsw i32 %spec.store.select1, 1
  %7 = sub nuw nsw i32 200, %6
  br label %8

8:                                                ; preds = %5, %3
  %.0 = phi i32 [ %.zext, %3 ], [ %7, %5 ]
  ret i32 %.0
}